target datalayout = "e-m:e-p270:32:32-p271:32:32-p272:64:64-i64:64-i128:128-f80:128-n8:16:32:64-S128"
target triple = "x86_64-pc-linux-gnu"

@_ZN15java_lang_Class13_klass_offsetE = external global i32, align 4

; Function Attrs: mustprogress nounwind uwtable
define linkonce_odr hidden noundef ptr @_ZN15java_lang_Class8as_KlassEP7oopDesc(ptr noundef %0) #1 comdat align 2 {
  %2 = alloca ptr, align 8
  %3 = alloca ptr, align 8
  store ptr %0, ptr %2, align 8
  %4 = load ptr, ptr %2, align 8
  %5 = load i32, ptr @_ZN15java_lang_Class13_klass_offsetE, align 4
  %6 = call noundef ptr @_ZNK7oopDesc14metadata_fieldEi(ptr noundef nonnull align 8 dereferenceable(16) %4, i32 noundef %5)
  store ptr %6, ptr %3, align 8
  %7 = load ptr, ptr %3, align 8
  ret ptr %7
}

; Function Attrs: mustprogress nounwind uwtable
define linkonce_odr hidden noundef zeroext i1 @_ZN15java_lang_Class12is_primitiveEP7oopDesc(ptr noundef %0) #1 comdat align 2 {
  %2 = alloca ptr, align 8
  %3 = alloca i8, align 1
  store ptr %0, ptr %2, align 8
  %4 = load ptr, ptr %2, align 8
  %5 = load i32, ptr @_ZN15java_lang_Class13_klass_offsetE, align 4
  %6 = call noundef ptr @_ZNK7oopDesc14metadata_fieldEi(ptr noundef nonnull align 8 dereferenceable(16) %4, i32 noundef %5)
  %7 = icmp eq ptr %6, null
  %8 = zext i1 %7 to i8
  store i8 %8, ptr %3, align 1
  %9 = load i8, ptr %3, align 1
  %10 = trunc i8 %9 to i1
  ret i1 %10
}

; Function Attrs: mustprogress nounwind uwtable
define hidden noundef i32 @_ZN8JvmtiEnv14GetClassStatusEP7oopDescPi(ptr noundef nonnull align 8 dereferenceable(460) %0, ptr noundef %1, ptr noundef %2) #1 align 2 {
  %4 = alloca i32, align 4
  %5 = alloca ptr, align 8
  %6 = alloca ptr, align 8
  %7 = alloca ptr, align 8
  %8 = alloca i32, align 4
  %9 = alloca ptr, align 8
  store ptr %0, ptr %5, align 8
  store ptr %1, ptr %6, align 8
  store ptr %2, ptr %7, align 8
  store i32 0, ptr %8, align 4
  %10 = load ptr, ptr %6, align 8
  %11 = call noundef zeroext i1 @_ZN15java_lang_Class12is_primitiveEP7oopDesc(ptr noundef %10)
  br i1 %11, label %12, label %15

12:                                               ; preds = %3
  %13 = load i32, ptr %8, align 4
  %14 = or i32 %13, 32
  store i32 %14, ptr %8, align 4
  br label %27

15:                                               ; preds = %3
  %16 = load ptr, ptr %6, align 8
  %17 = call noundef ptr @_ZN15java_lang_Class8as_KlassEP7oopDesc(ptr noundef %16)
  store ptr %17, ptr %9, align 8
  %18 = load ptr, ptr %9, align 8
  %19 = icmp eq ptr %18, null
  br i1 %19, label %20, label %21

20:                                               ; preds = %15
  store i32 21, ptr %4, align 4
  br label %30

21:                                               ; preds = %15
  %22 = load ptr, ptr %9, align 8
  %23 = load ptr, ptr %22, align 8
  %24 = getelementptr inbounds ptr, ptr %23, i64 36
  %25 = load ptr, ptr %24, align 8
  %26 = call noundef i32 %25(ptr noundef nonnull align 8 dereferenceable(196) %22)
  store i32 %26, ptr %8, align 4
  br label %27

27:                                               ; preds = %21, %12
  %28 = load i32, ptr %8, align 4
  %29 = load ptr, ptr %7, align 8
  store i32 %28, ptr %29, align 4
  store i32 0, ptr %4, align 4
  br label %30

30:                                               ; preds = %27, %20
  %31 = load i32, ptr %4, align 4
  ret i32 %31
}