; Function Attrs: mustprogress nounwind uwtable
define hidden noundef range(i32 0, 22) i32 @_ZN8JvmtiEnv14GetClassStatusEP7oopDescPi(ptr nocapture noundef nonnull readnone align 8 dereferenceable(460) %0, ptr noundef nonnull %1, ptr nocapture noundef writeonly %2) local_unnamed_addr #0 align 2 {
  %4 = load i32, ptr @_ZN15java_lang_Class13_klass_offsetE, align 4
  %5 = tail call noundef ptr @_ZNK7oopDesc14metadata_fieldEi(ptr noundef nonnull align 8 dereferenceable(16) %1, i32 noundef %4) #17
  %6 = icmp eq ptr %5, null
  br i1 %6, label %16, label %7

7:                                                ; preds = %3
  %8 = load i32, ptr @_ZN15java_lang_Class13_klass_offsetE, align 4
  %9 = tail call noundef ptr @_ZNK7oopDesc14metadata_fieldEi(ptr noundef nonnull align 8 dereferenceable(16) %1, i32 noundef %8) #17
  %10 = icmp eq ptr %9, null
  br i1 %10, label %17, label %11

11:                                               ; preds = %7
  %12 = load ptr, ptr %9, align 8
  %13 = getelementptr inbounds i8, ptr %12, i64 288
  %14 = load ptr, ptr %13, align 8
  %15 = tail call noundef i32 %14(ptr noundef nonnull align 8 dereferenceable(196) %9) #17
  br label %16

16:                                               ; preds = %3, %11
  %.07 = phi i32 [ %15, %11 ], [ 32, %3 ]
  store i32 %.07, ptr %2, align 4
  br label %17

17:                                               ; preds = %7, %16
  %.0 = phi i32 [ 0, %16 ], [ 21, %7 ]
  ret i32 %.0
}